; Function Attrs: nofree nounwind uwtable
define void @print_node3(ptr noundef readonly captures(none) %0) local_unnamed_addr #9 {
  %2 = alloca [6 x i8], align 1
  call void @llvm.lifetime.start.p0(i64 6, ptr nonnull %2) #18
  store i8 0, ptr %2, align 1, !tbaa !59
  %3 = getelementptr inbounds nuw i8, ptr %0, i64 20
  %4 = load i32, ptr %3, align 4
  %5 = and i32 %4, 16
  %.not = icmp eq i32 %5, 0
  br i1 %.not, label %7, label %6

6:                                                ; preds = %1
  %strlen = call i64 @strlen(ptr noundef nonnull dereferenceable(1) %2)
  %endptr = getelementptr inbounds i8, ptr %2, i64 %strlen
  store i16 65, ptr %endptr, align 1
  br label %7

7:                                                ; preds = %6, %1
  %8 = and i32 %4, 32
  %.not19 = icmp eq i32 %8, 0
  br i1 %.not19, label %10, label %9

9:                                                ; preds = %7
  %strlen20 = call i64 @strlen(ptr noundef nonnull dereferenceable(1) %2)
  %endptr21 = getelementptr inbounds i8, ptr %2, i64 %strlen20
  store i16 66, ptr %endptr21, align 1
  br label %10

10:                                               ; preds = %9, %7
  %11 = and i32 %4, 64
  %.not22 = icmp eq i32 %11, 0
  br i1 %.not22, label %13, label %12

12:                                               ; preds = %10
  %strlen23 = call i64 @strlen(ptr noundef nonnull dereferenceable(1) %2)
  %endptr24 = getelementptr inbounds i8, ptr %2, i64 %strlen23
  store i16 67, ptr %endptr24, align 1
  br label %13

13:                                               ; preds = %12, %10
  %14 = getelementptr i8, ptr %0, i64 16
  %.val29 = load i32, ptr %14, align 8, !tbaa !80
  %15 = and i32 %4, 15
  %16 = load ptr, ptr @pManMR, align 8, !tbaa !3
  %17 = getelementptr inbounds nuw i8, ptr %16, i64 112
  %18 = load ptr, ptr %17, align 8, !tbaa !71
  %19 = zext i32 %.val29 to i64
  %20 = getelementptr inbounds nuw %struct.Flow_Data_t_, ptr %18, i64 %19
  %21 = load i16, ptr %20, align 8
  %22 = zext i16 %21 to i32
  %23 = call i32 (ptr, ...) @printf(ptr noundef nonnull dereferenceable(1) @.str.31, i32 noundef %.val29, i32 noundef %15, i32 noundef %22, ptr noundef nonnull %2)
  %puts = call i32 @puts(ptr nonnull dereferenceable(1) @str.10)
  %24 = getelementptr i8, ptr %0, i64 44
  %.val35 = load i32, ptr %24, align 4, !tbaa !58
  %25 = icmp sgt i32 %.val35, 0
  br i1 %25, label %.lr.ph, label %.critedge

.lr.ph:                                           ; preds = %13
  %26 = getelementptr i8, ptr %0, i64 48
  br label %27

27:                                               ; preds = %.lr.ph, %27
  %indvars.iv = phi i64 [ 0, %.lr.ph ], [ %indvars.iv.next, %27 ]
  %.val30 = load ptr, ptr %0, align 8, !tbaa !52
  %.val31 = load ptr, ptr %26, align 8, !tbaa !57
  %28 = getelementptr i8, ptr %.val30, i64 32
  %.val30.val = load ptr, ptr %28, align 8, !tbaa !56
  %29 = getelementptr i8, ptr %.val30.val, i64 8
  %.val30.val.val = load ptr, ptr %29, align 8, !tbaa !28
  %30 = getelementptr inbounds nuw i32, ptr %.val31, i64 %indvars.iv
  %31 = load i32, ptr %30, align 4, !tbaa !48
  %32 = sext i32 %31 to i64
  %33 = getelementptr inbounds ptr, ptr %.val30.val.val, i64 %32
  %34 = load ptr, ptr %33, align 8, !tbaa !51
  call void @print_node(ptr noundef %34)
  %putchar26 = call i32 @putchar(i32 10)
  %indvars.iv.next = add nuw nsw i64 %indvars.iv, 1
  %.val = load i32, ptr %24, align 4, !tbaa !58
  %35 = sext i32 %.val to i64
  %36 = icmp slt i64 %indvars.iv.next, %35
  br i1 %36, label %27, label %.critedge, !llvm.loop !116

.critedge:                                        ; preds = %27, %13
  %puts25 = call i32 @puts(ptr nonnull dereferenceable(1) @str.11)
  %37 = getelementptr i8, ptr %0, i64 28
  %.val2737 = load i32, ptr %37, align 4, !tbaa !62
  %38 = icmp sgt i32 %.val2737, 0
  br i1 %38, label %.lr.ph39, label %.critedge2

.lr.ph39:                                         ; preds = %.critedge
  %39 = getelementptr i8, ptr %0, i64 32
  br label %40

40:                                               ; preds = %.lr.ph39, %40
  %indvars.iv41 = phi i64 [ 0, %.lr.ph39 ], [ %indvars.iv.next42, %40 ]
  %.val33 = load ptr, ptr %0, align 8, !tbaa !52
  %.val34 = load ptr, ptr %39, align 8, !tbaa !55
  %41 = getelementptr i8, ptr %.val33, i64 32
  %.val33.val = load ptr, ptr %41, align 8, !tbaa !56
  %42 = getelementptr i8, ptr %.val33.val, i64 8
  %.val33.val.val = load ptr, ptr %42, align 8, !tbaa !28
  %43 = getelementptr inbounds nuw i32, ptr %.val34, i64 %indvars.iv41
  %44 = load i32, ptr %43, align 4, !tbaa !48
  %45 = sext i32 %44 to i64
  %46 = getelementptr inbounds ptr, ptr %.val33.val.val, i64 %45
  %47 = load ptr, ptr %46, align 8, !tbaa !51
  call void @print_node(ptr noundef %47)
  %putchar = call i32 @putchar(i32 10)
  %indvars.iv.next42 = add nuw nsw i64 %indvars.iv41, 1
  %.val27 = load i32, ptr %37, align 4, !tbaa !62
  %48 = sext i32 %.val27 to i64
  %49 = icmp slt i64 %indvars.iv.next42, %48
  br i1 %49, label %40, label %.critedge2, !llvm.loop !117

.critedge2:                                       ; preds = %40, %.critedge
  call void @llvm.lifetime.end.p0(i64 6, ptr nonnull %2) #18
  ret void
}